target datalayout = "e-m:e-p270:32:32-p271:32:32-p272:64:64-i64:64-i128:128-f80:128-n8:16:32:64-S128"
target triple = "x86_64-pc-linux-gnu"

%struct.ADPCMChannelStatus = type { i32, i16, i32, i32, i32, i32, i32, i32, i32 }
%struct.AVCodecContext = type { ptr, i32, i32, ptr, i32, i32, ptr, ptr, ptr, i64, i32, i32, ptr, i32, %struct.AVRational, %struct.AVRational, %struct.AVRational, i32, i32, i32, i32, i32, %struct.AVRational, i32, i32, i32, i32, i32, i32, i32, i32, i32, i32, i32, ptr, ptr, i32, float, float, float, float, float, float, float, float, float, i32, i32, i32, i32, i32, i32, i32, i32, i32, i32, i32, i32, ptr, ptr, ptr, i32, i32, i32, i32, i32, i32, i32, i32, i32, i32, %struct.AVChannelLayout, i32, i32, i32, i32, i32, i32, i32, i32, ptr, i32, i32, i32, float, float, i32, i32, i32, i32, i32, ptr, i64, i64, float, float, i32, i32, ptr, ptr, i32, i32, i32, i32, i32, ptr, ptr, ptr, ptr, i32, i32, [8 x i64], i32, i32, i32, i32, i32, i32, i32, ptr, ptr, i32, i32, i32, i32, i32, i32, i32, i32, i32, i32, ptr, ptr, i32, i32, ptr, ptr, ptr, ptr, i32, i32, i64, i32, i32, i64, ptr, i64, ptr, i32, ptr, i32 }
%struct.AVRational = type { i32, i32 }
%struct.AVChannelLayout = type { i32, i32, %union.anon.1, ptr }
%union.anon.1 = type { i64 }
%struct.ADPCMDecodeContext = type { [14 x %struct.ADPCMChannelStatus], i32, i32 }

; Function Attrs: alwaysinline nounwind willreturn memory(none) uwtable
define internal i32 @av_clip_c(i32 noundef %0, i32 noundef %1, i32 noundef %2) #3 {
  %4 = alloca i32, align 4
  %5 = alloca i32, align 4
  %6 = alloca i32, align 4
  %7 = alloca i32, align 4
  store i32 %0, ptr %5, align 4, !tbaa !9
  store i32 %1, ptr %6, align 4, !tbaa !9
  store i32 %2, ptr %7, align 4, !tbaa !9
  %8 = load i32, ptr %5, align 4, !tbaa !9
  %9 = load i32, ptr %6, align 4, !tbaa !9
  %10 = icmp slt i32 %8, %9
  br i1 %10, label %11, label %13

11:                                               ; preds = %3
  %12 = load i32, ptr %6, align 4, !tbaa !9
  store i32 %12, ptr %4, align 4
  br label %21

13:                                               ; preds = %3
  %14 = load i32, ptr %5, align 4, !tbaa !9
  %15 = load i32, ptr %7, align 4, !tbaa !9
  %16 = icmp sgt i32 %14, %15
  br i1 %16, label %17, label %19

17:                                               ; preds = %13
  %18 = load i32, ptr %7, align 4, !tbaa !9
  store i32 %18, ptr %4, align 4
  br label %21

19:                                               ; preds = %13
  %20 = load i32, ptr %5, align 4, !tbaa !9
  store i32 %20, ptr %4, align 4
  br label %21

21:                                               ; preds = %19, %17, %11
  %22 = load i32, ptr %4, align 4
  ret i32 %22
}

; Function Attrs: alwaysinline nounwind willreturn memory(none) uwtable
define internal i32 @av_clip_intp2_c(i32 noundef %0, i32 noundef %1) #3 {
  %3 = alloca i32, align 4
  %4 = alloca i32, align 4
  %5 = alloca i32, align 4
  store i32 %0, ptr %4, align 4, !tbaa !9
  store i32 %1, ptr %5, align 4, !tbaa !9
  %6 = load i32, ptr %4, align 4, !tbaa !9
  %7 = load i32, ptr %5, align 4, !tbaa !9
  %8 = shl i32 1, %7
  %9 = add i32 %6, %8
  %10 = load i32, ptr %5, align 4, !tbaa !9
  %11 = shl i32 2, %10
  %12 = sub i32 %11, 1
  %13 = xor i32 %12, -1
  %14 = and i32 %9, %13
  %15 = icmp ne i32 %14, 0
  br i1 %15, label %16, label %23

16:                                               ; preds = %2
  %17 = load i32, ptr %4, align 4, !tbaa !9
  %18 = ashr i32 %17, 31
  %19 = load i32, ptr %5, align 4, !tbaa !9
  %20 = shl i32 1, %19
  %21 = sub nsw i32 %20, 1
  %22 = xor i32 %18, %21
  store i32 %22, ptr %3, align 4
  br label %25

23:                                               ; preds = %2
  %24 = load i32, ptr %4, align 4, !tbaa !9
  store i32 %24, ptr %3, align 4
  br label %25

25:                                               ; preds = %23, %16
  %26 = load i32, ptr %3, align 4
  ret i32 %26
}

; Function Attrs: nounwind uwtable
define internal void @adpcm_flush(ptr noundef %0) #0 {
  %2 = alloca ptr, align 8
  %3 = alloca ptr, align 8
  %4 = alloca i32, align 4
  store ptr %0, ptr %2, align 8, !tbaa !16
  call void @llvm.lifetime.start.p0(i64 8, ptr %3) #11
  %5 = load ptr, ptr %2, align 8, !tbaa !16
  %6 = getelementptr inbounds nuw %struct.AVCodecContext, ptr %5, i32 0, i32 6
  %7 = load ptr, ptr %6, align 8, !tbaa !18
  store ptr %7, ptr %3, align 8, !tbaa !37
  %8 = load ptr, ptr %3, align 8, !tbaa !37
  call void @llvm.memset.p0.i64(ptr align 4 %8, i8 0, i64 512, i1 false)
  %9 = load ptr, ptr %2, align 8, !tbaa !16
  %10 = getelementptr inbounds nuw %struct.AVCodecContext, ptr %9, i32 0, i32 4
  %11 = load i32, ptr %10, align 8, !tbaa !199
  switch i32 %11, label %125 [
    i32 69644, label %12
    i32 69661, label %21
    i32 69677, label %52
    i32 69636, label %106
  ]

12:                                               ; preds = %1
  %13 = load ptr, ptr %3, align 8, !tbaa !37
  %14 = getelementptr inbounds nuw %struct.ADPCMDecodeContext, ptr %13, i32 0, i32 0
  %15 = getelementptr inbounds [14 x %struct.ADPCMChannelStatus], ptr %14, i64 0, i64 1
  %16 = getelementptr inbounds nuw %struct.ADPCMChannelStatus, ptr %15, i32 0, i32 2
  store i32 511, ptr %16, align 4, !tbaa !92
  %17 = load ptr, ptr %3, align 8, !tbaa !37
  %18 = getelementptr inbounds nuw %struct.ADPCMDecodeContext, ptr %17, i32 0, i32 0
  %19 = getelementptr inbounds [14 x %struct.ADPCMChannelStatus], ptr %18, i64 0, i64 0
  %20 = getelementptr inbounds nuw %struct.ADPCMChannelStatus, ptr %19, i32 0, i32 2
  store i32 511, ptr %20, align 4, !tbaa !92
  br label %128

21:                                               ; preds = %1
  %22 = load ptr, ptr %2, align 8, !tbaa !16
  %23 = getelementptr inbounds nuw %struct.AVCodecContext, ptr %22, i32 0, i32 12
  %24 = load ptr, ptr %23, align 8, !tbaa !170
  %25 = icmp ne ptr %24, null
  br i1 %25, label %26, label %51

26:                                               ; preds = %21
  %27 = load ptr, ptr %2, align 8, !tbaa !16
  %28 = getelementptr inbounds nuw %struct.AVCodecContext, ptr %27, i32 0, i32 13
  %29 = load i32, ptr %28, align 8, !tbaa !171
  %30 = icmp sge i32 %29, 8
  br i1 %30, label %31, label %51

31:                                               ; preds = %26
  %32 = load ptr, ptr %2, align 8, !tbaa !16
  %33 = getelementptr inbounds nuw %struct.AVCodecContext, ptr %32, i32 0, i32 12
  %34 = load ptr, ptr %33, align 8, !tbaa !170
  %35 = load i32, ptr %34, align 1, !tbaa !15
  %36 = call i32 @av_clip_intp2_c(i32 noundef %35, i32 noundef 18) #12
  %37 = load ptr, ptr %3, align 8, !tbaa !37
  %38 = getelementptr inbounds nuw %struct.ADPCMDecodeContext, ptr %37, i32 0, i32 0
  %39 = getelementptr inbounds [14 x %struct.ADPCMChannelStatus], ptr %38, i64 0, i64 0
  %40 = getelementptr inbounds nuw %struct.ADPCMChannelStatus, ptr %39, i32 0, i32 0
  store i32 %36, ptr %40, align 4, !tbaa !70
  %41 = load ptr, ptr %2, align 8, !tbaa !16
  %42 = getelementptr inbounds nuw %struct.AVCodecContext, ptr %41, i32 0, i32 12
  %43 = load ptr, ptr %42, align 8, !tbaa !170
  %44 = getelementptr inbounds i8, ptr %43, i64 4
  %45 = load i32, ptr %44, align 1, !tbaa !15
  %46 = call i32 @av_clip_intp2_c(i32 noundef %45, i32 noundef 18) #12
  %47 = load ptr, ptr %3, align 8, !tbaa !37
  %48 = getelementptr inbounds nuw %struct.ADPCMDecodeContext, ptr %47, i32 0, i32 0
  %49 = getelementptr inbounds [14 x %struct.ADPCMChannelStatus], ptr %48, i64 0, i64 1
  %50 = getelementptr inbounds nuw %struct.ADPCMChannelStatus, ptr %49, i32 0, i32 0
  store i32 %46, ptr %50, align 4, !tbaa !70
  br label %51

51:                                               ; preds = %31, %26, %21
  br label %128

52:                                               ; preds = %1
  %53 = load ptr, ptr %2, align 8, !tbaa !16
  %54 = getelementptr inbounds nuw %struct.AVCodecContext, ptr %53, i32 0, i32 12
  %55 = load ptr, ptr %54, align 8, !tbaa !170
  %56 = icmp ne ptr %55, null
  br i1 %56, label %57, label %105

57:                                               ; preds = %52
  %58 = load ptr, ptr %2, align 8, !tbaa !16
  %59 = getelementptr inbounds nuw %struct.AVCodecContext, ptr %58, i32 0, i32 13
  %60 = load i32, ptr %59, align 8, !tbaa !171
  %61 = icmp sge i32 %60, 28
  br i1 %61, label %62, label %105

62:                                               ; preds = %57
  %63 = load ptr, ptr %2, align 8, !tbaa !16
  %64 = getelementptr inbounds nuw %struct.AVCodecContext, ptr %63, i32 0, i32 12
  %65 = load ptr, ptr %64, align 8, !tbaa !170
  %66 = getelementptr inbounds i8, ptr %65, i64 16
  %67 = load i32, ptr %66, align 1, !tbaa !15
  %68 = call i32 @av_clip_intp2_c(i32 noundef %67, i32 noundef 18) #12
  %69 = load ptr, ptr %3, align 8, !tbaa !37
  %70 = getelementptr inbounds nuw %struct.ADPCMDecodeContext, ptr %69, i32 0, i32 0
  %71 = getelementptr inbounds [14 x %struct.ADPCMChannelStatus], ptr %70, i64 0, i64 0
  %72 = getelementptr inbounds nuw %struct.ADPCMChannelStatus, ptr %71, i32 0, i32 0
  store i32 %68, ptr %72, align 4, !tbaa !70
  %73 = load ptr, ptr %2, align 8, !tbaa !16
  %74 = getelementptr inbounds nuw %struct.AVCodecContext, ptr %73, i32 0, i32 12
  %75 = load ptr, ptr %74, align 8, !tbaa !170
  %76 = getelementptr inbounds i8, ptr %75, i64 20
  %77 = load i32, ptr %76, align 1, !tbaa !15
  %78 = call i32 @av_clip_c(i32 noundef %77, i32 noundef 0, i32 noundef 88) #12
  %79 = trunc i32 %78 to i16
  %80 = load ptr, ptr %3, align 8, !tbaa !37
  %81 = getelementptr inbounds nuw %struct.ADPCMDecodeContext, ptr %80, i32 0, i32 0
  %82 = getelementptr inbounds [14 x %struct.ADPCMChannelStatus], ptr %81, i64 0, i64 0
  %83 = getelementptr inbounds nuw %struct.ADPCMChannelStatus, ptr %82, i32 0, i32 1
  store i16 %79, ptr %83, align 4, !tbaa !69
  %84 = load ptr, ptr %2, align 8, !tbaa !16
  %85 = getelementptr inbounds nuw %struct.AVCodecContext, ptr %84, i32 0, i32 12
  %86 = load ptr, ptr %85, align 8, !tbaa !170
  %87 = getelementptr inbounds i8, ptr %86, i64 4
  %88 = load i32, ptr %87, align 1, !tbaa !15
  %89 = call i32 @av_clip_intp2_c(i32 noundef %88, i32 noundef 18) #12
  %90 = load ptr, ptr %3, align 8, !tbaa !37
  %91 = getelementptr inbounds nuw %struct.ADPCMDecodeContext, ptr %90, i32 0, i32 0
  %92 = getelementptr inbounds [14 x %struct.ADPCMChannelStatus], ptr %91, i64 0, i64 1
  %93 = getelementptr inbounds nuw %struct.ADPCMChannelStatus, ptr %92, i32 0, i32 0
  store i32 %89, ptr %93, align 4, !tbaa !70
  %94 = load ptr, ptr %2, align 8, !tbaa !16
  %95 = getelementptr inbounds nuw %struct.AVCodecContext, ptr %94, i32 0, i32 12
  %96 = load ptr, ptr %95, align 8, !tbaa !170
  %97 = getelementptr inbounds i8, ptr %96, i64 8
  %98 = load i32, ptr %97, align 1, !tbaa !15
  %99 = call i32 @av_clip_c(i32 noundef %98, i32 noundef 0, i32 noundef 88) #12
  %100 = trunc i32 %99 to i16
  %101 = load ptr, ptr %3, align 8, !tbaa !37
  %102 = getelementptr inbounds nuw %struct.ADPCMDecodeContext, ptr %101, i32 0, i32 0
  %103 = getelementptr inbounds [14 x %struct.ADPCMChannelStatus], ptr %102, i64 0, i64 1
  %104 = getelementptr inbounds nuw %struct.ADPCMChannelStatus, ptr %103, i32 0, i32 1
  store i16 %100, ptr %104, align 4, !tbaa !69
  br label %105

105:                                              ; preds = %62, %57, %52
  br label %128

106:                                              ; preds = %1
  %107 = load ptr, ptr %2, align 8, !tbaa !16
  %108 = getelementptr inbounds nuw %struct.AVCodecContext, ptr %107, i32 0, i32 12
  %109 = load ptr, ptr %108, align 8, !tbaa !170
  %110 = icmp ne ptr %109, null
  br i1 %110, label %111, label %124

111:                                              ; preds = %106
  %112 = load ptr, ptr %2, align 8, !tbaa !16
  %113 = getelementptr inbounds nuw %struct.AVCodecContext, ptr %112, i32 0, i32 13
  %114 = load i32, ptr %113, align 8, !tbaa !171
  %115 = icmp sge i32 %114, 2
  br i1 %115, label %116, label %124

116:                                              ; preds = %111
  %117 = load ptr, ptr %2, align 8, !tbaa !16
  %118 = getelementptr inbounds nuw %struct.AVCodecContext, ptr %117, i32 0, i32 12
  %119 = load ptr, ptr %118, align 8, !tbaa !170
  %120 = load i16, ptr %119, align 1, !tbaa !15
  %121 = zext i16 %120 to i32
  %122 = load ptr, ptr %3, align 8, !tbaa !37
  %123 = getelementptr inbounds nuw %struct.ADPCMDecodeContext, ptr %122, i32 0, i32 1
  store i32 %121, ptr %123, align 4, !tbaa !49
  br label %124

124:                                              ; preds = %116, %111, %106
  br label %128

125:                                              ; preds = %1
  %126 = load ptr, ptr %3, align 8, !tbaa !37
  %127 = getelementptr inbounds nuw %struct.ADPCMDecodeContext, ptr %126, i32 0, i32 2
  store i32 0, ptr %127, align 4, !tbaa !180
  store i32 1, ptr %4, align 4
  br label %131

128:                                              ; preds = %124, %105, %51, %12
  %129 = load ptr, ptr %3, align 8, !tbaa !37
  %130 = getelementptr inbounds nuw %struct.ADPCMDecodeContext, ptr %129, i32 0, i32 2
  store i32 1, ptr %130, align 4, !tbaa !180
  store i32 0, ptr %4, align 4
  br label %131

131:                                              ; preds = %128, %125
  call void @llvm.lifetime.end.p0(i64 8, ptr %3) #11
  %132 = load i32, ptr %4, align 4
  switch i32 %132, label %134 [
    i32 0, label %133
    i32 1, label %133
  ]

133:                                              ; preds = %131, %131
  ret void

134:                                              ; preds = %131
  unreachable
}