; Function Attrs: mustprogress nofree norecurse nosync nounwind willreturn memory(readwrite, inaccessiblemem: none) uwtable
define internal void @adpcm_flush(ptr noundef readonly captures(none) %0) #4 {
  %2 = getelementptr inbounds nuw i8, ptr %0, i64 32
  %3 = load ptr, ptr %2, align 8, !tbaa !11
  tail call void @llvm.memset.p0.i64(ptr noundef nonnull align 4 dereferenceable(512) %3, i8 0, i64 512, i1 false)
  %4 = getelementptr inbounds nuw i8, ptr %0, i64 24
  %5 = load i32, ptr %4, align 8, !tbaa !186
  switch i32 %5, label %63 [
    i32 69644, label %6
    i32 69661, label %9
    i32 69677, label %23
    i32 69636, label %50
  ]

6:                                                ; preds = %1
  %7 = getelementptr inbounds nuw i8, ptr %3, i64 44
  store i32 511, ptr %7, align 4, !tbaa !79
  %8 = getelementptr inbounds nuw i8, ptr %3, i64 8
  store i32 511, ptr %8, align 4, !tbaa !79
  br label %61

9:                                                ; preds = %1
  %10 = getelementptr inbounds nuw i8, ptr %0, i64 72
  %11 = load ptr, ptr %10, align 8, !tbaa !48
  %.not30 = icmp eq ptr %11, null
  br i1 %.not30, label %61, label %12

12:                                               ; preds = %9
  %13 = getelementptr inbounds nuw i8, ptr %0, i64 80
  %14 = load i32, ptr %13, align 8, !tbaa !159
  %15 = icmp sgt i32 %14, 7
  br i1 %15, label %16, label %61

16:                                               ; preds = %12
  %17 = load i32, ptr %11, align 1, !tbaa !46
  %18 = tail call i32 @llvm.smax.i32(i32 %17, i32 -262144)
  %.0.i = tail call i32 @llvm.smin.i32(i32 %18, i32 262143)
  store i32 %.0.i, ptr %3, align 4, !tbaa !56
  %19 = getelementptr inbounds nuw i8, ptr %11, i64 4
  %20 = load i32, ptr %19, align 1, !tbaa !46
  %21 = tail call i32 @llvm.smax.i32(i32 %20, i32 -262144)
  %.0.i32 = tail call i32 @llvm.smin.i32(i32 %21, i32 262143)
  %22 = getelementptr inbounds nuw i8, ptr %3, i64 36
  store i32 %.0.i32, ptr %22, align 4, !tbaa !56
  br label %61

23:                                               ; preds = %1
  %24 = getelementptr inbounds nuw i8, ptr %0, i64 72
  %25 = load ptr, ptr %24, align 8, !tbaa !48
  %.not29 = icmp eq ptr %25, null
  br i1 %.not29, label %61, label %26

26:                                               ; preds = %23
  %27 = getelementptr inbounds nuw i8, ptr %0, i64 80
  %28 = load i32, ptr %27, align 8, !tbaa !159
  %29 = icmp sgt i32 %28, 27
  br i1 %29, label %30, label %61

30:                                               ; preds = %26
  %31 = getelementptr inbounds nuw i8, ptr %25, i64 16
  %32 = load i32, ptr %31, align 1, !tbaa !46
  %33 = tail call i32 @llvm.smax.i32(i32 %32, i32 -262144)
  %.0.i34 = tail call i32 @llvm.smin.i32(i32 %33, i32 262143)
  store i32 %.0.i34, ptr %3, align 4, !tbaa !56
  %34 = getelementptr inbounds nuw i8, ptr %25, i64 20
  %35 = load i32, ptr %34, align 1, !tbaa !46
  %36 = tail call i32 @llvm.smax.i32(i32 %35, i32 0)
  %37 = tail call i32 @llvm.umin.i32(i32 %36, i32 88)
  %38 = trunc nuw nsw i32 %37 to i16
  %39 = getelementptr inbounds nuw i8, ptr %3, i64 4
  store i16 %38, ptr %39, align 4, !tbaa !47
  %40 = getelementptr inbounds nuw i8, ptr %25, i64 4
  %41 = load i32, ptr %40, align 1, !tbaa !46
  %42 = tail call i32 @llvm.smax.i32(i32 %41, i32 -262144)
  %.0.i36 = tail call i32 @llvm.smin.i32(i32 %42, i32 262143)
  %43 = getelementptr inbounds nuw i8, ptr %3, i64 36
  store i32 %.0.i36, ptr %43, align 4, !tbaa !56
  %44 = getelementptr inbounds nuw i8, ptr %25, i64 8
  %45 = load i32, ptr %44, align 1, !tbaa !46
  %46 = tail call i32 @llvm.smax.i32(i32 %45, i32 0)
  %47 = tail call i32 @llvm.umin.i32(i32 %46, i32 88)
  %48 = trunc nuw nsw i32 %47 to i16
  %49 = getelementptr inbounds nuw i8, ptr %3, i64 40
  store i16 %48, ptr %49, align 4, !tbaa !47
  br label %61

50:                                               ; preds = %1
  %51 = getelementptr inbounds nuw i8, ptr %0, i64 72
  %52 = load ptr, ptr %51, align 8, !tbaa !48
  %.not = icmp eq ptr %52, null
  br i1 %.not, label %61, label %53

53:                                               ; preds = %50
  %54 = getelementptr inbounds nuw i8, ptr %0, i64 80
  %55 = load i32, ptr %54, align 8, !tbaa !159
  %56 = icmp sgt i32 %55, 1
  br i1 %56, label %57, label %61

57:                                               ; preds = %53
  %58 = load i16, ptr %52, align 1, !tbaa !46
  %59 = zext i16 %58 to i32
  %60 = getelementptr inbounds nuw i8, ptr %3, i64 504
  store i32 %59, ptr %60, align 4, !tbaa !41
  br label %61

61:                                               ; preds = %50, %53, %57, %23, %26, %30, %9, %12, %16, %6
  %62 = getelementptr inbounds nuw i8, ptr %3, i64 508
  store i32 1, ptr %62, align 4, !tbaa !167
  br label %63

63:                                               ; preds = %1, %61
  ret void
}